target datalayout = "e-m:e-p270:32:32-p271:32:32-p272:64:64-i64:64-i128:128-f80:128-n8:16:32:64-S128"
target triple = "x86_64-pc-linux-gnu"

%"class.llvm::opt::OptSpecifier" = type { i32 }
%"class.llvm::SmallVectorBase" = type { ptr, i32, i32 }

@.str = private unnamed_addr constant [17 x i8] c"--dependent-lib=\00", align 1
@.str.1 = private unnamed_addr constant [1 x i8] zeroinitializer, align 1

; Function Attrs: mustprogress nounwind uwtable
define linkonce_odr hidden noundef ptr @_ZNK4llvm25SmallVectorTemplateCommonIPKcvE10getFirstElEv(ptr noundef nonnull align 8 dereferenceable(16) %0) #0 comdat align 2 {
  %2 = alloca ptr, align 8
  store ptr %0, ptr %2, align 8
  %3 = load ptr, ptr %2, align 8
  %4 = getelementptr inbounds i8, ptr %3, i64 16
  ret ptr %4
}

; Function Attrs: mustprogress nounwind uwtable
define linkonce_odr hidden void @_ZN4llvm25SmallVectorTemplateCommonIPKcvE8grow_podEmm(ptr noundef nonnull align 8 dereferenceable(16) %0, i64 noundef %1, i64 noundef %2) #0 comdat align 2 {
  %4 = alloca ptr, align 8
  %5 = alloca i64, align 8
  %6 = alloca i64, align 8
  store ptr %0, ptr %4, align 8
  store i64 %1, ptr %5, align 8
  store i64 %2, ptr %6, align 8
  %7 = load ptr, ptr %4, align 8
  %8 = call noundef ptr @_ZNK4llvm25SmallVectorTemplateCommonIPKcvE10getFirstElEv(ptr noundef nonnull align 8 dereferenceable(16) %7)
  %9 = load i64, ptr %5, align 8
  %10 = load i64, ptr %6, align 8
  call void @_ZN4llvm15SmallVectorBaseIjE8grow_podEPvmm(ptr noundef nonnull align 8 dereferenceable(16) %7, ptr noundef %8, i64 noundef %9, i64 noundef %10)
  ret void
}

; Function Attrs: mustprogress nounwind uwtable
define linkonce_odr hidden void @_ZN4llvm23SmallVectorTemplateBaseIPKcLb1EE4growEm(ptr noundef nonnull align 8 dereferenceable(16) %0, i64 noundef %1) #0 comdat align 2 {
  %3 = alloca ptr, align 8
  %4 = alloca i64, align 8
  store ptr %0, ptr %3, align 8
  store i64 %1, ptr %4, align 8
  %5 = load ptr, ptr %3, align 8
  %6 = load i64, ptr %4, align 8
  call void @_ZN4llvm25SmallVectorTemplateCommonIPKcvE8grow_podEmm(ptr noundef nonnull align 8 dereferenceable(16) %5, i64 noundef %6, i64 noundef 8)
  ret void
}

; Function Attrs: mustprogress nounwind uwtable
define linkonce_odr hidden noundef ptr @_ZN4llvm25SmallVectorTemplateCommonIPKcvE5beginEv(ptr noundef nonnull align 8 dereferenceable(16) %0) #0 comdat align 2 {
  %2 = alloca ptr, align 8
  store ptr %0, ptr %2, align 8
  %3 = load ptr, ptr %2, align 8
  %4 = getelementptr inbounds nuw %"class.llvm::SmallVectorBase", ptr %3, i32 0, i32 0
  %5 = load ptr, ptr %4, align 8
  ret ptr %5
}

; Function Attrs: mustprogress nounwind uwtable
define linkonce_odr hidden noundef ptr @_ZN4llvm25SmallVectorTemplateCommonIPKcvE32reserveForParamAndGetAddressImplINS_23SmallVectorTemplateBaseIS2_Lb1EEEEEPKS2_PT_RS7_m(ptr noundef %0, ptr noundef nonnull align 8 dereferenceable(8) %1, i64 noundef %2) #0 comdat align 2 {
  %4 = alloca ptr, align 8
  %5 = alloca ptr, align 8
  %6 = alloca ptr, align 8
  %7 = alloca i64, align 8
  %8 = alloca i64, align 8
  %9 = alloca i8, align 1
  %10 = alloca i64, align 8
  store ptr %0, ptr %5, align 8
  store ptr %1, ptr %6, align 8
  store i64 %2, ptr %7, align 8
  %11 = load ptr, ptr %5, align 8
  %12 = call noundef i64 @_ZNK4llvm15SmallVectorBaseIjE4sizeEv(ptr noundef nonnull align 8 dereferenceable(16) %11)
  %13 = load i64, ptr %7, align 8
  %14 = add i64 %12, %13
  store i64 %14, ptr %8, align 8
  %15 = load i64, ptr %8, align 8
  %16 = load ptr, ptr %5, align 8
  %17 = call noundef i64 @_ZNK4llvm15SmallVectorBaseIjE8capacityEv(ptr noundef nonnull align 8 dereferenceable(16) %16)
  %18 = icmp ule i64 %15, %17
  br i1 %18, label %19, label %21

19:                                               ; preds = %3
  %20 = load ptr, ptr %6, align 8
  store ptr %20, ptr %4, align 8
  br label %35

21:                                               ; preds = %3
  store i8 0, ptr %9, align 1
  store i64 -1, ptr %10, align 8
  %22 = load ptr, ptr %5, align 8
  %23 = load i64, ptr %8, align 8
  call void @_ZN4llvm23SmallVectorTemplateBaseIPKcLb1EE4growEm(ptr noundef nonnull align 8 dereferenceable(16) %22, i64 noundef %23)
  %24 = load i8, ptr %9, align 1
  %25 = trunc i8 %24 to i1
  br i1 %25, label %26, label %31

26:                                               ; preds = %21
  %27 = load ptr, ptr %5, align 8
  %28 = call noundef ptr @_ZN4llvm25SmallVectorTemplateCommonIPKcvE5beginEv(ptr noundef nonnull align 8 dereferenceable(16) %27)
  %29 = load i64, ptr %10, align 8
  %30 = getelementptr inbounds ptr, ptr %28, i64 %29
  br label %33

31:                                               ; preds = %21
  %32 = load ptr, ptr %6, align 8
  br label %33

33:                                               ; preds = %31, %26
  %34 = phi ptr [ %30, %26 ], [ %32, %31 ]
  store ptr %34, ptr %4, align 8
  br label %35

35:                                               ; preds = %33, %19
  %36 = load ptr, ptr %4, align 8
  ret ptr %36
}

; Function Attrs: mustprogress nounwind uwtable
define linkonce_odr hidden noundef ptr @_ZN4llvm25SmallVectorTemplateCommonIPKcvE3endEv(ptr noundef nonnull align 8 dereferenceable(16) %0) #0 comdat align 2 {
  %2 = alloca ptr, align 8
  store ptr %0, ptr %2, align 8
  %3 = load ptr, ptr %2, align 8
  %4 = call noundef ptr @_ZN4llvm25SmallVectorTemplateCommonIPKcvE5beginEv(ptr noundef nonnull align 8 dereferenceable(16) %3)
  %5 = call noundef i64 @_ZNK4llvm15SmallVectorBaseIjE4sizeEv(ptr noundef nonnull align 8 dereferenceable(16) %3)
  %6 = getelementptr inbounds ptr, ptr %4, i64 %5
  ret ptr %6
}

; Function Attrs: mustprogress nounwind uwtable
define linkonce_odr hidden noundef ptr @_ZN4llvm23SmallVectorTemplateBaseIPKcLb1EE28reserveForParamAndGetAddressERS2_m(ptr noundef nonnull align 8 dereferenceable(16) %0, ptr noundef nonnull align 8 dereferenceable(8) %1, i64 noundef %2) #0 comdat align 2 {
  %4 = alloca ptr, align 8
  %5 = alloca ptr, align 8
  %6 = alloca i64, align 8
  store ptr %0, ptr %4, align 8
  store ptr %1, ptr %5, align 8
  store i64 %2, ptr %6, align 8
  %7 = load ptr, ptr %4, align 8
  %8 = load ptr, ptr %5, align 8
  %9 = load i64, ptr %6, align 8
  %10 = call noundef ptr @_ZN4llvm25SmallVectorTemplateCommonIPKcvE32reserveForParamAndGetAddressImplINS_23SmallVectorTemplateBaseIS2_Lb1EEEEEPKS2_PT_RS7_m(ptr noundef %7, ptr noundef nonnull align 8 dereferenceable(8) %8, i64 noundef %9)
  ret ptr %10
}

; Function Attrs: mustprogress nounwind uwtable
define linkonce_odr hidden void @_ZN4llvm23SmallVectorTemplateBaseIPKcLb1EE9push_backES2_(ptr noundef nonnull align 8 dereferenceable(16) %0, ptr noundef %1) #0 comdat align 2 {
  %3 = alloca ptr, align 8
  %4 = alloca ptr, align 8
  %5 = alloca ptr, align 8
  store ptr %0, ptr %3, align 8
  store ptr %1, ptr %4, align 8
  %6 = load ptr, ptr %3, align 8
  %7 = call noundef ptr @_ZN4llvm23SmallVectorTemplateBaseIPKcLb1EE28reserveForParamAndGetAddressERS2_m(ptr noundef nonnull align 8 dereferenceable(16) %6, ptr noundef nonnull align 8 dereferenceable(8) %4, i64 noundef 1)
  store ptr %7, ptr %5, align 8
  %8 = call noundef ptr @_ZN4llvm25SmallVectorTemplateCommonIPKcvE3endEv(ptr noundef nonnull align 8 dereferenceable(16) %6)
  %9 = load ptr, ptr %5, align 8
  call void @llvm.memcpy.p0.p0.i64(ptr align 1 %8, ptr align 8 %9, i64 8, i1 false)
  %10 = call noundef i64 @_ZNK4llvm15SmallVectorBaseIjE4sizeEv(ptr noundef nonnull align 8 dereferenceable(16) %6)
  %11 = add i64 %10, 1
  call void @_ZN4llvm15SmallVectorBaseIjE8set_sizeEm(ptr noundef nonnull align 8 dereferenceable(16) %6, i64 noundef %11)
  ret void
}

; Function Attrs: mustprogress nounwind uwtable
define linkonce_odr hidden noundef zeroext i1 @_ZNK4llvm3opt7ArgList6hasArgIJN5clang6driver7options2IDEEEEbDpT_(ptr noundef nonnull align 8 dereferenceable(176) %0, i32 noundef %1) #0 comdat align 2 {
  %3 = alloca ptr, align 8
  %4 = alloca i32, align 4
  store ptr %0, ptr %3, align 8
  store i32 %1, ptr %4, align 4
  %5 = load ptr, ptr %3, align 8
  %6 = load i32, ptr %4, align 4
  %7 = call noundef ptr @_ZNK4llvm3opt7ArgList10getLastArgIJN5clang6driver7options2IDEEEEPNS0_3ArgEDpT_(ptr noundef nonnull align 8 dereferenceable(176) %5, i32 noundef %6)
  %8 = icmp ne ptr %7, null
  ret i1 %8
}

; Function Attrs: mustprogress nounwind uwtable
define linkonce_odr hidden void @_ZN4llvm3opt12OptSpecifierC2Ej(ptr noundef nonnull align 4 dereferenceable(4) %0, i32 noundef %1) unnamed_addr #0 comdat align 2 {
  %3 = alloca ptr, align 8
  %4 = alloca i32, align 4
  store ptr %0, ptr %3, align 8
  store i32 %1, ptr %4, align 4
  %5 = load ptr, ptr %3, align 8
  %6 = getelementptr inbounds nuw %"class.llvm::opt::OptSpecifier", ptr %5, i32 0, i32 0
  %7 = load i32, ptr %4, align 4
  store i32 %7, ptr %6, align 4
  ret void
}

; Function Attrs: mustprogress nounwind uwtable
define dso_local void @_ZN5clang6driver5tools5PScpu16addProfileRTArgsERKNS0_9ToolChainERKN4llvm3opt7ArgListERNS6_11SmallVectorIPKcLj16EEE(ptr noundef nonnull align 8 dereferenceable(2168) %0, ptr noundef nonnull align 8 dereferenceable(176) %1, ptr noundef nonnull align 8 dereferenceable(144) %2) #0 {
  %4 = alloca ptr, align 8
  %5 = alloca ptr, align 8
  %6 = alloca ptr, align 8
  %7 = alloca ptr, align 8
  %8 = alloca %"class.llvm::opt::OptSpecifier", align 4
  %9 = alloca %"class.llvm::opt::OptSpecifier", align 4
  %10 = alloca %"class.llvm::opt::OptSpecifier", align 4
  %11 = alloca %"class.llvm::opt::OptSpecifier", align 4
  %12 = alloca %"class.llvm::opt::OptSpecifier", align 4
  %13 = alloca %"class.llvm::opt::OptSpecifier", align 4
  %14 = alloca %"class.llvm::opt::OptSpecifier", align 4
  %15 = alloca %"class.llvm::opt::OptSpecifier", align 4
  %16 = alloca %"class.llvm::opt::OptSpecifier", align 4
  %17 = alloca %"class.llvm::opt::OptSpecifier", align 4
  %18 = alloca %"class.llvm::opt::OptSpecifier", align 4
  %19 = alloca %"class.llvm::opt::OptSpecifier", align 4
  %20 = alloca %"class.llvm::opt::OptSpecifier", align 4
  %21 = alloca %"class.llvm::opt::OptSpecifier", align 4
  store ptr %0, ptr %4, align 8
  store ptr %1, ptr %5, align 8
  store ptr %2, ptr %6, align 8
  %22 = load ptr, ptr %4, align 8
  store ptr %22, ptr %7, align 8
  %23 = load ptr, ptr %5, align 8
  call void @_ZN4llvm3opt12OptSpecifierC2Ej(ptr noundef nonnull align 4 dereferenceable(4) %8, i32 noundef 1573)
  call void @_ZN4llvm3opt12OptSpecifierC2Ej(ptr noundef nonnull align 4 dereferenceable(4) %9, i32 noundef 1254)
  %24 = getelementptr inbounds nuw %"class.llvm::opt::OptSpecifier", ptr %8, i32 0, i32 0
  %25 = load i32, ptr %24, align 4
  %26 = getelementptr inbounds nuw %"class.llvm::opt::OptSpecifier", ptr %9, i32 0, i32 0
  %27 = load i32, ptr %26, align 4
  %28 = call noundef zeroext i1 @_ZNK4llvm3opt7ArgList7hasFlagENS0_12OptSpecifierES2_b(ptr noundef nonnull align 8 dereferenceable(176) %23, i32 %25, i32 %27, i1 noundef zeroext false)
  br i1 %28, label %77, label %29

29:                                               ; preds = %3
  %30 = load ptr, ptr %5, align 8
  call void @_ZN4llvm3opt12OptSpecifierC2Ej(ptr noundef nonnull align 4 dereferenceable(4) %10, i32 noundef 1581)
  call void @_ZN4llvm3opt12OptSpecifierC2Ej(ptr noundef nonnull align 4 dereferenceable(4) %11, i32 noundef 1257)
  %31 = getelementptr inbounds nuw %"class.llvm::opt::OptSpecifier", ptr %10, i32 0, i32 0
  %32 = load i32, ptr %31, align 4
  %33 = getelementptr inbounds nuw %"class.llvm::opt::OptSpecifier", ptr %11, i32 0, i32 0
  %34 = load i32, ptr %33, align 4
  %35 = call noundef zeroext i1 @_ZNK4llvm3opt7ArgList7hasFlagENS0_12OptSpecifierES2_b(ptr noundef nonnull align 8 dereferenceable(176) %30, i32 %32, i32 %34, i1 noundef zeroext false)
  br i1 %35, label %77, label %36

36:                                               ; preds = %29
  %37 = load ptr, ptr %5, align 8
  call void @_ZN4llvm3opt12OptSpecifierC2Ej(ptr noundef nonnull align 4 dereferenceable(4) %12, i32 noundef 1580)
  call void @_ZN4llvm3opt12OptSpecifierC2Ej(ptr noundef nonnull align 4 dereferenceable(4) %13, i32 noundef 1257)
  %38 = getelementptr inbounds nuw %"class.llvm::opt::OptSpecifier", ptr %12, i32 0, i32 0
  %39 = load i32, ptr %38, align 4
  %40 = getelementptr inbounds nuw %"class.llvm::opt::OptSpecifier", ptr %13, i32 0, i32 0
  %41 = load i32, ptr %40, align 4
  %42 = call noundef zeroext i1 @_ZNK4llvm3opt7ArgList7hasFlagENS0_12OptSpecifierES2_b(ptr noundef nonnull align 8 dereferenceable(176) %37, i32 %39, i32 %41, i1 noundef zeroext false)
  br i1 %42, label %77, label %43

43:                                               ; preds = %36
  %44 = load ptr, ptr %5, align 8
  call void @_ZN4llvm3opt12OptSpecifierC2Ej(ptr noundef nonnull align 4 dereferenceable(4) %14, i32 noundef 1583)
  call void @_ZN4llvm3opt12OptSpecifierC2Ej(ptr noundef nonnull align 4 dereferenceable(4) %15, i32 noundef 1258)
  %45 = getelementptr inbounds nuw %"class.llvm::opt::OptSpecifier", ptr %14, i32 0, i32 0
  %46 = load i32, ptr %45, align 4
  %47 = getelementptr inbounds nuw %"class.llvm::opt::OptSpecifier", ptr %15, i32 0, i32 0
  %48 = load i32, ptr %47, align 4
  %49 = call noundef zeroext i1 @_ZNK4llvm3opt7ArgList7hasFlagENS0_12OptSpecifierES2_b(ptr noundef nonnull align 8 dereferenceable(176) %44, i32 %46, i32 %48, i1 noundef zeroext false)
  br i1 %49, label %77, label %50

50:                                               ; preds = %43
  %51 = load ptr, ptr %5, align 8
  call void @_ZN4llvm3opt12OptSpecifierC2Ej(ptr noundef nonnull align 4 dereferenceable(4) %16, i32 noundef 1582)
  call void @_ZN4llvm3opt12OptSpecifierC2Ej(ptr noundef nonnull align 4 dereferenceable(4) %17, i32 noundef 1258)
  %52 = getelementptr inbounds nuw %"class.llvm::opt::OptSpecifier", ptr %16, i32 0, i32 0
  %53 = load i32, ptr %52, align 4
  %54 = getelementptr inbounds nuw %"class.llvm::opt::OptSpecifier", ptr %17, i32 0, i32 0
  %55 = load i32, ptr %54, align 4
  %56 = call noundef zeroext i1 @_ZNK4llvm3opt7ArgList7hasFlagENS0_12OptSpecifierES2_b(ptr noundef nonnull align 8 dereferenceable(176) %51, i32 %53, i32 %55, i1 noundef zeroext false)
  br i1 %56, label %77, label %57

57:                                               ; preds = %50
  %58 = load ptr, ptr %5, align 8
  call void @_ZN4llvm3opt12OptSpecifierC2Ej(ptr noundef nonnull align 4 dereferenceable(4) %18, i32 noundef 529)
  call void @_ZN4llvm3opt12OptSpecifierC2Ej(ptr noundef nonnull align 4 dereferenceable(4) %19, i32 noundef 1257)
  %59 = getelementptr inbounds nuw %"class.llvm::opt::OptSpecifier", ptr %18, i32 0, i32 0
  %60 = load i32, ptr %59, align 4
  %61 = getelementptr inbounds nuw %"class.llvm::opt::OptSpecifier", ptr %19, i32 0, i32 0
  %62 = load i32, ptr %61, align 4
  %63 = call noundef zeroext i1 @_ZNK4llvm3opt7ArgList7hasFlagENS0_12OptSpecifierES2_b(ptr noundef nonnull align 8 dereferenceable(176) %58, i32 %60, i32 %62, i1 noundef zeroext false)
  br i1 %63, label %77, label %64

64:                                               ; preds = %57
  %65 = load ptr, ptr %5, align 8
  call void @_ZN4llvm3opt12OptSpecifierC2Ej(ptr noundef nonnull align 4 dereferenceable(4) %20, i32 noundef 528)
  call void @_ZN4llvm3opt12OptSpecifierC2Ej(ptr noundef nonnull align 4 dereferenceable(4) %21, i32 noundef 1257)
  %66 = getelementptr inbounds nuw %"class.llvm::opt::OptSpecifier", ptr %20, i32 0, i32 0
  %67 = load i32, ptr %66, align 4
  %68 = getelementptr inbounds nuw %"class.llvm::opt::OptSpecifier", ptr %21, i32 0, i32 0
  %69 = load i32, ptr %68, align 4
  %70 = call noundef zeroext i1 @_ZNK4llvm3opt7ArgList7hasFlagENS0_12OptSpecifierES2_b(ptr noundef nonnull align 8 dereferenceable(176) %65, i32 %67, i32 %69, i1 noundef zeroext false)
  br i1 %70, label %77, label %71

71:                                               ; preds = %64
  %72 = load ptr, ptr %5, align 8
  %73 = call noundef zeroext i1 @_ZNK4llvm3opt7ArgList6hasArgIJN5clang6driver7options2IDEEEEbDpT_(ptr noundef nonnull align 8 dereferenceable(176) %72, i32 noundef 527)
  br i1 %73, label %77, label %74

74:                                               ; preds = %71
  %75 = load ptr, ptr %5, align 8
  %76 = call noundef zeroext i1 @_ZNK4llvm3opt7ArgList6hasArgIJN5clang6driver7options2IDEEEEbDpT_(ptr noundef nonnull align 8 dereferenceable(176) %75, i32 noundef 236)
  br i1 %76, label %77, label %86

77:                                               ; preds = %74, %71, %64, %57, %50, %43, %36, %29, %3
  %78 = load ptr, ptr %6, align 8
  %79 = load ptr, ptr %5, align 8
  %80 = load ptr, ptr %7, align 8
  %81 = load ptr, ptr %80, align 8
  %82 = getelementptr inbounds ptr, ptr %81, i64 100
  %83 = load ptr, ptr %82, align 8
  %84 = call noundef ptr %83(ptr noundef nonnull align 8 dereferenceable(4520) %80)
  %85 = call noundef ptr @_ZL13makeArgStringRKN4llvm3opt7ArgListEPKcS5_S5_(ptr noundef nonnull align 8 dereferenceable(176) %79, ptr noundef @.str, ptr noundef %84, ptr noundef @.str.1)
  call void @_ZN4llvm23SmallVectorTemplateBaseIPKcLb1EE9push_backES2_(ptr noundef nonnull align 8 dereferenceable(16) %78, ptr noundef %85)
  br label %86

86:                                               ; preds = %77, %74
  ret void
}