; Function Attrs: mustprogress nounwind uwtable
define dso_local void @_ZN5clang6driver5tools5PScpu16addProfileRTArgsERKNS0_9ToolChainERKN4llvm3opt7ArgListERNS6_11SmallVectorIPKcLj16EEE(ptr noundef nonnull align 8 dereferenceable(2168) %0, ptr noundef nonnull align 8 dereferenceable(176) %1, ptr noundef nonnull align 8 dereferenceable(144) %2) local_unnamed_addr #0 {
  %4 = tail call noundef zeroext i1 @_ZNK4llvm3opt7ArgList7hasFlagENS0_12OptSpecifierES2_b(ptr noundef nonnull align 8 dereferenceable(176) %1, i32 1573, i32 1254, i1 noundef zeroext false) #13
  br i1 %4, label %21, label %5

5:                                                ; preds = %3
  %6 = tail call noundef zeroext i1 @_ZNK4llvm3opt7ArgList7hasFlagENS0_12OptSpecifierES2_b(ptr noundef nonnull align 8 dereferenceable(176) %1, i32 1581, i32 1257, i1 noundef zeroext false) #13
  br i1 %6, label %21, label %7

7:                                                ; preds = %5
  %8 = tail call noundef zeroext i1 @_ZNK4llvm3opt7ArgList7hasFlagENS0_12OptSpecifierES2_b(ptr noundef nonnull align 8 dereferenceable(176) %1, i32 1580, i32 1257, i1 noundef zeroext false) #13
  br i1 %8, label %21, label %9

9:                                                ; preds = %7
  %10 = tail call noundef zeroext i1 @_ZNK4llvm3opt7ArgList7hasFlagENS0_12OptSpecifierES2_b(ptr noundef nonnull align 8 dereferenceable(176) %1, i32 1583, i32 1258, i1 noundef zeroext false) #13
  br i1 %10, label %21, label %11

11:                                               ; preds = %9
  %12 = tail call noundef zeroext i1 @_ZNK4llvm3opt7ArgList7hasFlagENS0_12OptSpecifierES2_b(ptr noundef nonnull align 8 dereferenceable(176) %1, i32 1582, i32 1258, i1 noundef zeroext false) #13
  br i1 %12, label %21, label %13

13:                                               ; preds = %11
  %14 = tail call noundef zeroext i1 @_ZNK4llvm3opt7ArgList7hasFlagENS0_12OptSpecifierES2_b(ptr noundef nonnull align 8 dereferenceable(176) %1, i32 529, i32 1257, i1 noundef zeroext false) #13
  br i1 %14, label %21, label %15

15:                                               ; preds = %13
  %16 = tail call noundef zeroext i1 @_ZNK4llvm3opt7ArgList7hasFlagENS0_12OptSpecifierES2_b(ptr noundef nonnull align 8 dereferenceable(176) %1, i32 528, i32 1257, i1 noundef zeroext false) #13
  br i1 %16, label %21, label %17

17:                                               ; preds = %15
  %18 = tail call noundef ptr @_ZNK4llvm3opt7ArgList10getLastArgIJN5clang6driver7options2IDEEEEPNS0_3ArgEDpT_(ptr noundef nonnull align 8 dereferenceable(176) %1, i32 noundef 527)
  %.not = icmp eq ptr %18, null
  br i1 %.not, label %19, label %21

19:                                               ; preds = %17
  %20 = tail call noundef ptr @_ZNK4llvm3opt7ArgList10getLastArgIJN5clang6driver7options2IDEEEEPNS0_3ArgEDpT_(ptr noundef nonnull align 8 dereferenceable(176) %1, i32 noundef 236)
  %.not26 = icmp eq ptr %20, null
  br i1 %.not26, label %38, label %21

21:                                               ; preds = %19, %17, %15, %13, %11, %9, %7, %5, %3
  %22 = load ptr, ptr %0, align 8
  %23 = getelementptr inbounds i8, ptr %22, i64 800
  %24 = load ptr, ptr %23, align 8
  %25 = tail call noundef ptr %24(ptr noundef nonnull align 8 dereferenceable(4520) %0) #13
  %26 = tail call fastcc noundef ptr @_ZL13makeArgStringRKN4llvm3opt7ArgListEPKcS5_S5_(ptr noundef nonnull align 8 dereferenceable(176) %1, ptr noundef nonnull @.str, ptr noundef %25, ptr noundef nonnull @.str.1)
  %27 = tail call noundef i64 @_ZNK4llvm15SmallVectorBaseIjE4sizeEv(ptr noundef nonnull align 8 dereferenceable(16) %2) #13
  %28 = add i64 %27, 1
  %29 = tail call noundef i64 @_ZNK4llvm15SmallVectorBaseIjE8capacityEv(ptr noundef nonnull align 8 dereferenceable(16) %2) #13
  %.not.i.i.i = icmp ugt i64 %28, %29
  br i1 %.not.i.i.i, label %30, label %_ZN4llvm23SmallVectorTemplateBaseIPKcLb1EE9push_backES2_.exit

30:                                               ; preds = %21
  %31 = getelementptr inbounds i8, ptr %2, i64 16
  tail call void @_ZN4llvm15SmallVectorBaseIjE8grow_podEPvmm(ptr noundef nonnull align 8 dereferenceable(16) %2, ptr noundef nonnull %31, i64 noundef %28, i64 noundef 8) #13
  br label %_ZN4llvm23SmallVectorTemplateBaseIPKcLb1EE9push_backES2_.exit

_ZN4llvm23SmallVectorTemplateBaseIPKcLb1EE9push_backES2_.exit: ; preds = %21, %30
  %32 = load ptr, ptr %2, align 8
  %33 = tail call noundef i64 @_ZNK4llvm15SmallVectorBaseIjE4sizeEv(ptr noundef nonnull align 8 dereferenceable(16) %2) #13
  %34 = getelementptr inbounds ptr, ptr %32, i64 %33
  %35 = ptrtoint ptr %26 to i64
  store i64 %35, ptr %34, align 1
  %36 = tail call noundef i64 @_ZNK4llvm15SmallVectorBaseIjE4sizeEv(ptr noundef nonnull align 8 dereferenceable(16) %2) #13
  %37 = add i64 %36, 1
  tail call void @_ZN4llvm15SmallVectorBaseIjE8set_sizeEm(ptr noundef nonnull align 8 dereferenceable(16) %2, i64 noundef %37) #13
  br label %38

38:                                               ; preds = %_ZN4llvm23SmallVectorTemplateBaseIPKcLb1EE9push_backES2_.exit, %19
  ret void
}